target datalayout = "e-m:e-p270:32:32-p271:32:32-p272:64:64-i64:64-i128:128-f80:128-n8:16:32:64-S128"
target triple = "x86_64-pc-linux-gnu"

%struct.pmix_list_t = type { %struct.pmix_object_t, %struct.pmix_list_item_t, i64 }
%struct.pmix_object_t = type { %union.pthread_mutex_t, ptr, i32, %struct.pmix_tma }
%union.pthread_mutex_t = type { %struct.__pthread_mutex_s }
%struct.__pthread_mutex_s = type { i32, i32, i32, i32, i32, i16, i16, %struct.__pthread_internal_list }
%struct.__pthread_internal_list = type { ptr, ptr }
%struct.pmix_tma = type { ptr, ptr, ptr, ptr, ptr, ptr, ptr, ptr }
%struct.pmix_list_item_t = type { %struct.pmix_object_t, ptr, ptr, i32 }
%struct.pmix_pnet_globals_t = type { %struct.pmix_list_t, %struct.pmix_list_t, %struct.pmix_list_t, i8 }
%struct.pmix_pnet_module_t = type { ptr, ptr, ptr, ptr, ptr, ptr, ptr, ptr, ptr, ptr, ptr, ptr, ptr, ptr }
%struct.pmix_fabric_s = type { ptr, i64, ptr, i64, ptr }
%struct.pmix_pnet_fabric_t = type { %struct.pmix_list_item_t, ptr, i64, ptr, ptr }

@pmix_pnet_globals = external global %struct.pmix_pnet_globals_t, align 8

; Function Attrs: nounwind uwtable
define i32 @pmix_pnet_base_deregister_fabric(ptr noundef %0) #0 {
  %2 = alloca i32, align 4
  %3 = alloca ptr, align 8
  %4 = alloca i32, align 4
  %5 = alloca ptr, align 8
  %6 = alloca ptr, align 8
  %7 = alloca ptr, align 8
  %8 = alloca i32, align 4
  store ptr %0, ptr %3, align 8, !tbaa !128
  call void @llvm.lifetime.start.p0(i64 4, ptr %4) #11
  store i32 0, ptr %4, align 4, !tbaa !72
  call void @llvm.lifetime.start.p0(i64 8, ptr %5) #11
  call void @llvm.lifetime.start.p0(i64 8, ptr %6) #11
  store ptr null, ptr %6, align 8, !tbaa !27
  call void @llvm.lifetime.start.p0(i64 8, ptr %7) #11
  %9 = load ptr, ptr %3, align 8, !tbaa !128
  %10 = icmp eq ptr null, %9
  br i1 %10, label %11, label %12

11:                                               ; preds = %1
  store i32 -27, ptr %2, align 4
  store i32 1, ptr %8, align 4
  br label %89

12:                                               ; preds = %1
  %13 = load ptr, ptr %3, align 8, !tbaa !128
  %14 = getelementptr inbounds nuw %struct.pmix_fabric_s, ptr %13, i32 0, i32 4
  %15 = load ptr, ptr %14, align 8, !tbaa !133
  %16 = icmp eq ptr null, %15
  br i1 %16, label %17, label %64

17:                                               ; preds = %12
  %18 = load ptr, ptr getelementptr inbounds nuw (%struct.pmix_list_item_t, ptr getelementptr inbounds nuw (%struct.pmix_list_t, ptr getelementptr inbounds nuw (%struct.pmix_pnet_globals_t, ptr @pmix_pnet_globals, i32 0, i32 1), i32 0, i32 1), i32 0, i32 1), align 8, !tbaa !142
  store ptr %18, ptr %7, align 8, !tbaa !27
  br label %19

19:                                               ; preds = %59, %17
  %20 = load ptr, ptr %7, align 8, !tbaa !27
  %21 = icmp ne ptr %20, getelementptr inbounds nuw (%struct.pmix_list_t, ptr getelementptr inbounds nuw (%struct.pmix_pnet_globals_t, ptr @pmix_pnet_globals, i32 0, i32 1), i32 0, i32 1)
  br i1 %21, label %22, label %63

22:                                               ; preds = %19
  %23 = load ptr, ptr %3, align 8, !tbaa !128
  %24 = getelementptr inbounds nuw %struct.pmix_fabric_s, ptr %23, i32 0, i32 1
  %25 = load i64, ptr %24, align 8, !tbaa !135
  %26 = load ptr, ptr %7, align 8, !tbaa !27
  %27 = getelementptr inbounds nuw %struct.pmix_pnet_fabric_t, ptr %26, i32 0, i32 2
  %28 = load i64, ptr %27, align 8, !tbaa !136
  %29 = icmp eq i64 %25, %28
  br i1 %29, label %30, label %34

30:                                               ; preds = %22
  %31 = load ptr, ptr %7, align 8, !tbaa !27
  %32 = getelementptr inbounds nuw %struct.pmix_pnet_fabric_t, ptr %31, i32 0, i32 3
  %33 = load ptr, ptr %32, align 8, !tbaa !140
  store ptr %33, ptr %6, align 8, !tbaa !27
  br label %58

34:                                               ; preds = %22
  %35 = load ptr, ptr %3, align 8, !tbaa !128
  %36 = getelementptr inbounds nuw %struct.pmix_fabric_s, ptr %35, i32 0, i32 0
  %37 = load ptr, ptr %36, align 8, !tbaa !138
  %38 = icmp ne ptr null, %37
  br i1 %38, label %39, label %57

39:                                               ; preds = %34
  %40 = load ptr, ptr %7, align 8, !tbaa !27
  %41 = getelementptr inbounds nuw %struct.pmix_pnet_fabric_t, ptr %40, i32 0, i32 1
  %42 = load ptr, ptr %41, align 8, !tbaa !139
  %43 = icmp ne ptr null, %42
  br i1 %43, label %44, label %57

44:                                               ; preds = %39
  %45 = load ptr, ptr %7, align 8, !tbaa !27
  %46 = getelementptr inbounds nuw %struct.pmix_pnet_fabric_t, ptr %45, i32 0, i32 1
  %47 = load ptr, ptr %46, align 8, !tbaa !139
  %48 = load ptr, ptr %3, align 8, !tbaa !128
  %49 = getelementptr inbounds nuw %struct.pmix_fabric_s, ptr %48, i32 0, i32 0
  %50 = load ptr, ptr %49, align 8, !tbaa !138
  %51 = call i32 @strcmp(ptr noundef %47, ptr noundef %50) #12
  %52 = icmp eq i32 0, %51
  br i1 %52, label %53, label %57

53:                                               ; preds = %44
  %54 = load ptr, ptr %7, align 8, !tbaa !27
  %55 = getelementptr inbounds nuw %struct.pmix_pnet_fabric_t, ptr %54, i32 0, i32 3
  %56 = load ptr, ptr %55, align 8, !tbaa !140
  store ptr %56, ptr %6, align 8, !tbaa !27
  br label %57

57:                                               ; preds = %53, %44, %39, %34
  br label %58

58:                                               ; preds = %57, %30
  br label %59

59:                                               ; preds = %58
  %60 = load ptr, ptr %7, align 8, !tbaa !27
  %61 = getelementptr inbounds nuw %struct.pmix_list_item_t, ptr %60, i32 0, i32 1
  %62 = load ptr, ptr %61, align 8, !tbaa !50
  store ptr %62, ptr %7, align 8, !tbaa !27
  br label %19, !llvm.loop !145

63:                                               ; preds = %19
  br label %71

64:                                               ; preds = %12
  %65 = load ptr, ptr %3, align 8, !tbaa !128
  %66 = getelementptr inbounds nuw %struct.pmix_fabric_s, ptr %65, i32 0, i32 4
  %67 = load ptr, ptr %66, align 8, !tbaa !133
  store ptr %67, ptr %5, align 8, !tbaa !27
  %68 = load ptr, ptr %5, align 8, !tbaa !27
  %69 = getelementptr inbounds nuw %struct.pmix_pnet_fabric_t, ptr %68, i32 0, i32 3
  %70 = load ptr, ptr %69, align 8, !tbaa !140
  store ptr %70, ptr %6, align 8, !tbaa !27
  br label %71

71:                                               ; preds = %64, %63
  br label %72

72:                                               ; preds = %71
  %73 = load ptr, ptr %6, align 8, !tbaa !27
  %74 = icmp eq ptr null, %73
  br i1 %74, label %75, label %76

75:                                               ; preds = %72
  store i32 -27, ptr %2, align 4
  store i32 1, ptr %8, align 4
  br label %89

76:                                               ; preds = %72
  %77 = load ptr, ptr %6, align 8, !tbaa !27
  %78 = getelementptr inbounds nuw %struct.pmix_pnet_module_t, ptr %77, i32 0, i32 13
  %79 = load ptr, ptr %78, align 8, !tbaa !146
  %80 = icmp ne ptr null, %79
  br i1 %80, label %81, label %87

81:                                               ; preds = %76
  %82 = load ptr, ptr %6, align 8, !tbaa !27
  %83 = getelementptr inbounds nuw %struct.pmix_pnet_module_t, ptr %82, i32 0, i32 13
  %84 = load ptr, ptr %83, align 8, !tbaa !146
  %85 = load ptr, ptr %3, align 8, !tbaa !128
  %86 = call i32 %84(ptr noundef %85)
  store i32 %86, ptr %4, align 4, !tbaa !72
  br label %87

87:                                               ; preds = %81, %76
  %88 = load i32, ptr %4, align 4, !tbaa !72
  store i32 %88, ptr %2, align 4
  store i32 1, ptr %8, align 4
  br label %89

89:                                               ; preds = %87, %75, %11
  call void @llvm.lifetime.end.p0(i64 8, ptr %7) #11
  call void @llvm.lifetime.end.p0(i64 8, ptr %6) #11
  call void @llvm.lifetime.end.p0(i64 8, ptr %5) #11
  call void @llvm.lifetime.end.p0(i64 4, ptr %4) #11
  %90 = load i32, ptr %2, align 4
  ret i32 %90
}